target datalayout = "e-m:e-p270:32:32-p271:32:32-p272:64:64-i64:64-f80:128-n8:16:32:64-S128"
target triple = "x86_64-pc-linux-gnu"

@.str = private unnamed_addr constant [5 x i8] c"%d%s\00", align 1
@.str.1 = private unnamed_addr constant [4 x i8] c"%d\0A\00", align 1
@.str.2 = private unnamed_addr constant [4 x i8] c"%s\0A\00", align 1
@.str.3 = private unnamed_addr constant [4 x i8] c"NO\0A\00", align 1

; Function Attrs: noinline nounwind uwtable
define dso_local void @main() #0 {
  %1 = alloca i32, align 4
  %2 = alloca i32, align 4
  %3 = alloca [550 x i8], align 16
  %4 = alloca [510 x [500 x i8]], align 16
  %5 = alloca i32, align 4
  %6 = alloca i32, align 4
  %7 = alloca i32, align 4
  %8 = alloca [510 x i32], align 16
  %9 = alloca [510 x i32], align 16
  %10 = alloca i32, align 4
  %11 = getelementptr inbounds [550 x i8], [550 x i8]* %3, i64 0, i64 0
  %12 = call i32 (i8*, ...) @__isoc99_scanf(i8* getelementptr inbounds ([5 x i8], [5 x i8]* @.str, i64 0, i64 0), i32* %1, i8* %11)
  %13 = getelementptr inbounds [550 x i8], [550 x i8]* %3, i64 0, i64 0
  %14 = call i64 @strlen(i8* %13) #4
  %15 = load i32, i32* %1, align 4
  %16 = sext i32 %15 to i64
  %17 = sub i64 %14, %16
  %18 = add i64 %17, 1
  %19 = trunc i64 %18 to i32
  store i32 %19, i32* %2, align 4
  store i32 0, i32* %5, align 4
  br label %20

20:                                               ; preds = %52, %0
  %21 = load i32, i32* %5, align 4
  %22 = load i32, i32* %2, align 4
  %23 = icmp slt i32 %21, %22
  br i1 %23, label %24, label %55

24:                                               ; preds = %20
  store i32 0, i32* %7, align 4
  br label %25

25:                                               ; preds = %42, %24
  %26 = load i32, i32* %7, align 4
  %27 = load i32, i32* %1, align 4
  %28 = icmp slt i32 %26, %27
  br i1 %28, label %29, label %45

29:                                               ; preds = %25
  %30 = load i32, i32* %5, align 4
  %31 = load i32, i32* %7, align 4
  %32 = add nsw i32 %30, %31
  %33 = sext i32 %32 to i64
  %34 = getelementptr inbounds [550 x i8], [550 x i8]* %3, i64 0, i64 %33
  %35 = load i8, i8* %34, align 1
  %36 = load i32, i32* %5, align 4
  %37 = sext i32 %36 to i64
  %38 = getelementptr inbounds [510 x [500 x i8]], [510 x [500 x i8]]* %4, i64 0, i64 %37
  %39 = load i32, i32* %7, align 4
  %40 = sext i32 %39 to i64
  %41 = getelementptr inbounds [500 x i8], [500 x i8]* %38, i64 0, i64 %40
  store i8 %35, i8* %41, align 1
  br label %42

42:                                               ; preds = %29
  %43 = load i32, i32* %7, align 4
  %44 = add nsw i32 %43, 1
  store i32 %44, i32* %7, align 4
  br label %25

45:                                               ; preds = %25
  %46 = load i32, i32* %5, align 4
  %47 = sext i32 %46 to i64
  %48 = getelementptr inbounds [510 x [500 x i8]], [510 x [500 x i8]]* %4, i64 0, i64 %47
  %49 = load i32, i32* %7, align 4
  %50 = sext i32 %49 to i64
  %51 = getelementptr inbounds [500 x i8], [500 x i8]* %48, i64 0, i64 %50
  store i8 0, i8* %51, align 1
  br label %52

52:                                               ; preds = %45
  %53 = load i32, i32* %5, align 4
  %54 = add nsw i32 %53, 1
  store i32 %54, i32* %5, align 4
  br label %20

55:                                               ; preds = %20
  %56 = bitcast [510 x i32]* %8 to i8*
  call void @llvm.memset.p0i8.i64(i8* align 16 %56, i8 0, i64 2040, i1 false)
  %57 = bitcast [510 x i32]* %9 to i8*
  call void @llvm.memset.p0i8.i64(i8* align 16 %57, i8 0, i64 2040, i1 false)
  store i32 0, i32* %5, align 4
  br label %58

58:                                               ; preds = %100, %55
  %59 = load i32, i32* %5, align 4
  %60 = load i32, i32* %2, align 4
  %61 = icmp slt i32 %59, %60
  br i1 %61, label %62, label %103

62:                                               ; preds = %58
  %63 = load i32, i32* %5, align 4
  store i32 %63, i32* %6, align 4
  br label %64

64:                                               ; preds = %96, %62
  %65 = load i32, i32* %6, align 4
  %66 = load i32, i32* %2, align 4
  %67 = icmp slt i32 %65, %66
  br i1 %67, label %68, label %99

68:                                               ; preds = %64
  %69 = load i32, i32* %6, align 4
  %70 = sext i32 %69 to i64
  %71 = getelementptr inbounds [510 x i32], [510 x i32]* %8, i64 0, i64 %70
  %72 = load i32, i32* %71, align 4
  %73 = icmp eq i32 %72, 0
  br i1 %73, label %74, label %95

74:                                               ; preds = %68
  %75 = load i32, i32* %5, align 4
  %76 = sext i32 %75 to i64
  %77 = getelementptr inbounds [510 x [500 x i8]], [510 x [500 x i8]]* %4, i64 0, i64 %76
  %78 = getelementptr inbounds [500 x i8], [500 x i8]* %77, i64 0, i64 0
  %79 = load i32, i32* %6, align 4
  %80 = sext i32 %79 to i64
  %81 = getelementptr inbounds [510 x [500 x i8]], [510 x [500 x i8]]* %4, i64 0, i64 %80
  %82 = getelementptr inbounds [500 x i8], [500 x i8]* %81, i64 0, i64 0
  %83 = call i32 @strcmp(i8* %78, i8* %82) #4
  %84 = icmp eq i32 %83, 0
  br i1 %84, label %85, label %94

85:                                               ; preds = %74
  %86 = load i32, i32* %6, align 4
  %87 = sext i32 %86 to i64
  %88 = getelementptr inbounds [510 x i32], [510 x i32]* %8, i64 0, i64 %87
  store i32 1, i32* %88, align 4
  %89 = load i32, i32* %5, align 4
  %90 = sext i32 %89 to i64
  %91 = getelementptr inbounds [510 x i32], [510 x i32]* %9, i64 0, i64 %90
  %92 = load i32, i32* %91, align 4
  %93 = add nsw i32 %92, 1
  store i32 %93, i32* %91, align 4
  br label %94

94:                                               ; preds = %85, %74
  br label %95

95:                                               ; preds = %94, %68
  br label %96

96:                                               ; preds = %95
  %97 = load i32, i32* %6, align 4
  %98 = add nsw i32 %97, 1
  store i32 %98, i32* %6, align 4
  br label %64

99:                                               ; preds = %64
  br label %100

100:                                              ; preds = %99
  %101 = load i32, i32* %5, align 4
  %102 = add nsw i32 %101, 1
  store i32 %102, i32* %5, align 4
  br label %58

103:                                              ; preds = %58
  %104 = getelementptr inbounds [510 x i32], [510 x i32]* %9, i64 0, i64 0
  %105 = load i32, i32* %104, align 16
  store i32 %105, i32* %10, align 4
  store i32 0, i32* %5, align 4
  br label %106

106:                                              ; preds = %123, %103
  %107 = load i32, i32* %5, align 4
  %108 = load i32, i32* %2, align 4
  %109 = icmp slt i32 %107, %108
  br i1 %109, label %110, label %126

110:                                              ; preds = %106
  %111 = load i32, i32* %5, align 4
  %112 = sext i32 %111 to i64
  %113 = getelementptr inbounds [510 x i32], [510 x i32]* %9, i64 0, i64 %112
  %114 = load i32, i32* %113, align 4
  %115 = load i32, i32* %10, align 4
  %116 = icmp sgt i32 %114, %115
  br i1 %116, label %117, label %122

117:                                              ; preds = %110
  %118 = load i32, i32* %5, align 4
  %119 = sext i32 %118 to i64
  %120 = getelementptr inbounds [510 x i32], [510 x i32]* %9, i64 0, i64 %119
  %121 = load i32, i32* %120, align 4
  store i32 %121, i32* %10, align 4
  br label %122

122:                                              ; preds = %117, %110
  br label %123

123:                                              ; preds = %122
  %124 = load i32, i32* %5, align 4
  %125 = add nsw i32 %124, 1
  store i32 %125, i32* %5, align 4
  br label %106

126:                                              ; preds = %106
  %127 = load i32, i32* %10, align 4
  %128 = icmp ne i32 %127, 1
  br i1 %128, label %129, label %154

129:                                              ; preds = %126
  %130 = load i32, i32* %10, align 4
  %131 = call i32 (i8*, ...) @printf(i8* getelementptr inbounds ([4 x i8], [4 x i8]* @.str.1, i64 0, i64 0), i32 %130)
  store i32 0, i32* %5, align 4
  br label %132

132:                                              ; preds = %150, %129
  %133 = load i32, i32* %5, align 4
  %134 = load i32, i32* %2, align 4
  %135 = icmp slt i32 %133, %134
  br i1 %135, label %136, label %153

136:                                              ; preds = %132
  %137 = load i32, i32* %5, align 4
  %138 = sext i32 %137 to i64
  %139 = getelementptr inbounds [510 x i32], [510 x i32]* %9, i64 0, i64 %138
  %140 = load i32, i32* %139, align 4
  %141 = load i32, i32* %10, align 4
  %142 = icmp eq i32 %140, %141
  br i1 %142, label %143, label %149

143:                                              ; preds = %136
  %144 = load i32, i32* %5, align 4
  %145 = sext i32 %144 to i64
  %146 = getelementptr inbounds [510 x [500 x i8]], [510 x [500 x i8]]* %4, i64 0, i64 %145
  %147 = getelementptr inbounds [500 x i8], [500 x i8]* %146, i64 0, i64 0
  %148 = call i32 (i8*, ...) @printf(i8* getelementptr inbounds ([4 x i8], [4 x i8]* @.str.2, i64 0, i64 0), i8* %147)
  br label %149

149:                                              ; preds = %143, %136
  br label %150

150:                                              ; preds = %149
  %151 = load i32, i32* %5, align 4
  %152 = add nsw i32 %151, 1
  store i32 %152, i32* %5, align 4
  br label %132

153:                                              ; preds = %132
  br label %156

154:                                              ; preds = %126
  %155 = call i32 (i8*, ...) @printf(i8* getelementptr inbounds ([4 x i8], [4 x i8]* @.str.3, i64 0, i64 0))
  br label %156

156:                                              ; preds = %154, %153
  ret void
}